target datalayout = "e-m:e-p270:32:32-p271:32:32-p272:64:64-i64:64-i128:128-f80:128-n8:16:32:64-S128"
target triple = "x86_64-pc-linux-gnu"

%struct.rb_data_type_struct = type { ptr, %struct.anon, ptr, ptr, i64 }
%struct.anon = type { ptr, ptr, ptr, ptr, [1 x ptr] }
%struct.RTypedData = type { %struct.RBasic, ptr, i64, ptr }
%struct.RBasic = type { i64, i64 }

@eEC_GROUP = internal global i64 0, align 8
@eEC_POINT = internal global i64 0, align 8
@id_i_group = internal global i64 0, align 8
@ossl_ec_group_type = internal constant %struct.rb_data_type_struct { ptr @.str.61, %struct.anon { ptr null, ptr @ossl_ec_group_free, ptr null, ptr null, [1 x ptr] zeroinitializer }, ptr null, ptr null, i64 33 }, align 8
@.str.59 = private unnamed_addr constant [28 x i8] c"EC_GROUP is not initialized\00", align 1
@.str.70 = private unnamed_addr constant [13 x i8] c"EC_POINT_dup\00", align 1
@ossl_ec_point_type = internal constant %struct.rb_data_type_struct { ptr @.str.87, %struct.anon { ptr null, ptr @ossl_ec_point_free, ptr null, ptr null, [1 x ptr] zeroinitializer }, ptr null, ptr null, i64 33 }, align 8
@.str.85 = private unnamed_addr constant [28 x i8] c"EC_POINT is not initialized\00", align 1
@.str.101 = private unnamed_addr constant [30 x i8] c"EC::Point already initialized\00", align 1

; Function Attrs: nounwind sspstrong uwtable
define internal i64 @ossl_ec_point_initialize_copy(i64 noundef %0, i64 noundef %1) #0 {
  %3 = alloca i64, align 8
  %4 = alloca i64, align 8
  %5 = alloca ptr, align 8
  %6 = alloca ptr, align 8
  %7 = alloca ptr, align 8
  %8 = alloca i64, align 8
  store i64 %0, ptr %3, align 8, !tbaa !6
  store i64 %1, ptr %4, align 8, !tbaa !6
  call void @llvm.lifetime.start.p0(i64 8, ptr %5) #19
  call void @llvm.lifetime.start.p0(i64 8, ptr %6) #19
  call void @llvm.lifetime.start.p0(i64 8, ptr %7) #19
  call void @llvm.lifetime.start.p0(i64 8, ptr %8) #19
  %9 = load i64, ptr %3, align 8, !tbaa !6
  %10 = call ptr @rb_check_typeddata(i64 noundef %9, ptr noundef @ossl_ec_point_type)
  store ptr %10, ptr %6, align 8, !tbaa !37
  %11 = load ptr, ptr %6, align 8, !tbaa !37
  %12 = icmp ne ptr %11, null
  br i1 %12, label %13, label %15

13:                                               ; preds = %2
  %14 = load i64, ptr @eEC_POINT, align 8, !tbaa !6
  call void (i64, ptr, ...) @ossl_raise(i64 noundef %14, ptr noundef @.str.101) #20
  unreachable

15:                                               ; preds = %2
  br label %16

16:                                               ; preds = %15
  %17 = load i64, ptr %4, align 8, !tbaa !6
  %18 = call ptr @rb_check_typeddata(i64 noundef %17, ptr noundef @ossl_ec_point_type)
  store ptr %18, ptr %5, align 8, !tbaa !37
  %19 = load ptr, ptr %5, align 8, !tbaa !37
  %20 = icmp eq ptr %19, null
  br i1 %20, label %21, label %23

21:                                               ; preds = %16
  %22 = load i64, ptr @eEC_POINT, align 8, !tbaa !6
  call void (i64, ptr, ...) @ossl_raise(i64 noundef %22, ptr noundef @.str.85) #20
  unreachable

23:                                               ; preds = %16
  br label %24

24:                                               ; preds = %23
  br label %25

25:                                               ; preds = %24
  %26 = load i64, ptr %4, align 8, !tbaa !6
  %27 = load i64, ptr @id_i_group, align 8, !tbaa !6
  %28 = call i64 @rb_attr_get(i64 noundef %26, i64 noundef %27)
  %29 = call i64 @rb_obj_dup(i64 noundef %28)
  store i64 %29, ptr %8, align 8, !tbaa !6
  br label %30

30:                                               ; preds = %25
  %31 = load i64, ptr %8, align 8, !tbaa !6
  %32 = call ptr @rb_check_typeddata(i64 noundef %31, ptr noundef @ossl_ec_group_type)
  store ptr %32, ptr %7, align 8, !tbaa !33
  %33 = load ptr, ptr %7, align 8, !tbaa !33
  %34 = icmp eq ptr %33, null
  br i1 %34, label %35, label %37

35:                                               ; preds = %30
  %36 = load i64, ptr @eEC_GROUP, align 8, !tbaa !6
  call void (i64, ptr, ...) @ossl_raise(i64 noundef %36, ptr noundef @.str.59) #20
  unreachable

37:                                               ; preds = %30
  br label %38

38:                                               ; preds = %37
  br label %39

39:                                               ; preds = %38
  %40 = load ptr, ptr %5, align 8, !tbaa !37
  %41 = load ptr, ptr %7, align 8, !tbaa !33
  %42 = call ptr @EC_POINT_dup(ptr noundef %40, ptr noundef %41)
  store ptr %42, ptr %6, align 8, !tbaa !37
  %43 = load ptr, ptr %6, align 8, !tbaa !37
  %44 = icmp ne ptr %43, null
  br i1 %44, label %47, label %45

45:                                               ; preds = %39
  %46 = load i64, ptr @eEC_POINT, align 8, !tbaa !6
  call void (i64, ptr, ...) @ossl_raise(i64 noundef %46, ptr noundef @.str.70) #20
  unreachable

47:                                               ; preds = %39
  %48 = load ptr, ptr %6, align 8, !tbaa !37
  %49 = load i64, ptr %3, align 8, !tbaa !6
  %50 = inttoptr i64 %49 to ptr
  %51 = getelementptr inbounds nuw %struct.RTypedData, ptr %50, i32 0, i32 3
  store ptr %48, ptr %51, align 8, !tbaa !25
  %52 = load i64, ptr %3, align 8, !tbaa !6
  %53 = load i64, ptr @id_i_group, align 8, !tbaa !6
  %54 = load i64, ptr %8, align 8, !tbaa !6
  %55 = call i64 @rb_ivar_set(i64 noundef %52, i64 noundef %53, i64 noundef %54)
  %56 = load i64, ptr %3, align 8, !tbaa !6
  call void @llvm.lifetime.end.p0(i64 8, ptr %8) #19
  call void @llvm.lifetime.end.p0(i64 8, ptr %7) #19
  call void @llvm.lifetime.end.p0(i64 8, ptr %6) #19
  call void @llvm.lifetime.end.p0(i64 8, ptr %5) #19
  ret i64 %56
}