; Function Attrs: nounwind sspstrong uwtable
define internal noundef i64 @ossl_ec_point_initialize_copy(i64 noundef returned %0, i64 noundef %1) #0 {
  %3 = tail call ptr @rb_check_typeddata(i64 noundef %0, ptr noundef nonnull @ossl_ec_point_type) #7
  %.not = icmp eq ptr %3, null
  br i1 %.not, label %6, label %4

4:                                                ; preds = %2
  %5 = load i64, ptr @eEC_POINT, align 8, !tbaa !6
  tail call void (i64, ptr, ...) @ossl_raise(i64 noundef %5, ptr noundef nonnull @.str.101) #9
  unreachable

6:                                                ; preds = %2
  %7 = tail call ptr @rb_check_typeddata(i64 noundef %1, ptr noundef nonnull @ossl_ec_point_type) #7
  %8 = icmp eq ptr %7, null
  br i1 %8, label %9, label %11

9:                                                ; preds = %6
  %10 = load i64, ptr @eEC_POINT, align 8, !tbaa !6
  tail call void (i64, ptr, ...) @ossl_raise(i64 noundef %10, ptr noundef nonnull @.str.85) #9
  unreachable

11:                                               ; preds = %6
  %12 = load i64, ptr @id_i_group, align 8, !tbaa !6
  %13 = tail call i64 @rb_attr_get(i64 noundef %1, i64 noundef %12) #7
  %14 = tail call i64 @rb_obj_dup(i64 noundef %13) #7
  %15 = tail call ptr @rb_check_typeddata(i64 noundef %14, ptr noundef nonnull @ossl_ec_group_type) #7
  %16 = icmp eq ptr %15, null
  br i1 %16, label %17, label %19

17:                                               ; preds = %11
  %18 = load i64, ptr @eEC_GROUP, align 8, !tbaa !6
  tail call void (i64, ptr, ...) @ossl_raise(i64 noundef %18, ptr noundef nonnull @.str.59) #9
  unreachable

19:                                               ; preds = %11
  %20 = tail call ptr @EC_POINT_dup(ptr noundef nonnull %7, ptr noundef nonnull %15) #7
  %.not16 = icmp eq ptr %20, null
  br i1 %.not16, label %21, label %23

21:                                               ; preds = %19
  %22 = load i64, ptr @eEC_POINT, align 8, !tbaa !6
  tail call void (i64, ptr, ...) @ossl_raise(i64 noundef %22, ptr noundef nonnull @.str.70) #9
  unreachable

23:                                               ; preds = %19
  %24 = inttoptr i64 %0 to ptr
  %25 = getelementptr inbounds nuw i8, ptr %24, i64 32
  store ptr %20, ptr %25, align 8, !tbaa !19
  %26 = load i64, ptr @id_i_group, align 8, !tbaa !6
  %27 = tail call i64 @rb_ivar_set(i64 noundef %0, i64 noundef %26, i64 noundef %14) #7
  ret i64 %0
}